; Function Attrs: inlinehint mustprogress optsize uwtable
define internal noundef nonnull ptr @"_ZZN8nanobind6detail11func_createILb0ELb1EZL30nanobind_init_test_holders_extRNS_7module_EE4$_19bJRK15SharedWrapperSTS7_EJLm0ELm1EEJNS_5scopeENS_4nameEEEEP7_objectOT1_PFT2_DpT3_ESt16integer_sequenceImJXspT4_EEEDpRKT5_ENUlPvPSB_PhNS_9rv_policyEPNS0_12cleanup_listEE_8__invokeESP_SQ_SR_SS_SU_"(ptr readnone captures(none) %0, ptr noundef readonly captures(none) %1, ptr noundef readonly captures(none) %2, i32 %3, ptr noundef %4) #8 align 2 personality ptr @__gxx_personality_v0 {
  %6 = alloca %"struct.nanobind::detail::tuple.351", align 8
  call void @llvm.lifetime.start.p0(i64 16, ptr nonnull %6) #26
  %7 = getelementptr inbounds nuw i8, ptr %6, i64 8
  %8 = load ptr, ptr %1, align 8, !tbaa !115
  %9 = load i8, ptr %2, align 1, !tbaa !37
  %10 = call noundef zeroext i1 @_ZN8nanobind6detail11nb_type_getEPKSt9type_infoP7_objecthPNS0_12cleanup_listEPPv(ptr noundef nonnull @_ZTI15SharedWrapperST, ptr noundef %8, i8 noundef zeroext %9, ptr noundef %4, ptr noundef nonnull align 8 dereferenceable(8) %7) #27
  br i1 %10, label %11, label %"_ZZN8nanobind6detail11func_createILb0ELb1EZL30nanobind_init_test_holders_extRNS_7module_EE4$_19bJRK15SharedWrapperSTS7_EJLm0ELm1EEJNS_5scopeENS_4nameEEEEP7_objectOT1_PFT2_DpT3_ESt16integer_sequenceImJXspT4_EEEDpRKT5_ENKUlPvPSB_PhNS_9rv_policyEPNS0_12cleanup_listEE_clESP_SQ_SR_SS_SU_.exit"

11:                                               ; preds = %5
  %12 = getelementptr inbounds nuw i8, ptr %1, i64 8
  %13 = load ptr, ptr %12, align 8, !tbaa !115
  %14 = getelementptr inbounds nuw i8, ptr %2, i64 1
  %15 = load i8, ptr %14, align 1, !tbaa !37
  %16 = call noundef zeroext i1 @_ZN8nanobind6detail11nb_type_getEPKSt9type_infoP7_objecthPNS0_12cleanup_listEPPv(ptr noundef nonnull @_ZTI15SharedWrapperST, ptr noundef %13, i8 noundef zeroext %15, ptr noundef %4, ptr noundef nonnull align 8 dereferenceable(8) %6) #27
  br i1 %16, label %17, label %"_ZZN8nanobind6detail11func_createILb0ELb1EZL30nanobind_init_test_holders_extRNS_7module_EE4$_19bJRK15SharedWrapperSTS7_EJLm0ELm1EEJNS_5scopeENS_4nameEEEEP7_objectOT1_PFT2_DpT3_ESt16integer_sequenceImJXspT4_EEEDpRKT5_ENKUlPvPSB_PhNS_9rv_policyEPNS0_12cleanup_listEE_clESP_SQ_SR_SS_SU_.exit"

17:                                               ; preds = %11
  %18 = load ptr, ptr %7, align 8, !tbaa !263
  call void @_ZN8nanobind6detail27raise_next_overload_if_nullEPv(ptr noundef %18) #25
  %19 = load ptr, ptr %7, align 8, !tbaa !263
  %20 = load ptr, ptr %6, align 8, !tbaa !263
  call void @_ZN8nanobind6detail27raise_next_overload_if_nullEPv(ptr noundef %20) #25
  %21 = load ptr, ptr %6, align 8, !tbaa !263
  %22 = getelementptr i8, ptr %19, i64 8
  %.val = load ptr, ptr %22, align 8, !tbaa !126
  %23 = getelementptr i8, ptr %21, i64 8
  %.val4 = load ptr, ptr %23, align 8, !tbaa !126
  %24 = icmp eq ptr %.val4, %.val
  %25 = select i1 %24, ptr @_Py_TrueStruct, ptr @_Py_FalseStruct
  %26 = load i64, ptr %25, align 8, !tbaa !90
  %27 = add nsw i64 %26, 1
  store i64 %27, ptr %25, align 8, !tbaa !90
  br label %"_ZZN8nanobind6detail11func_createILb0ELb1EZL30nanobind_init_test_holders_extRNS_7module_EE4$_19bJRK15SharedWrapperSTS7_EJLm0ELm1EEJNS_5scopeENS_4nameEEEEP7_objectOT1_PFT2_DpT3_ESt16integer_sequenceImJXspT4_EEEDpRKT5_ENKUlPvPSB_PhNS_9rv_policyEPNS0_12cleanup_listEE_clESP_SQ_SR_SS_SU_.exit"

"_ZZN8nanobind6detail11func_createILb0ELb1EZL30nanobind_init_test_holders_extRNS_7module_EE4$_19bJRK15SharedWrapperSTS7_EJLm0ELm1EEJNS_5scopeENS_4nameEEEEP7_objectOT1_PFT2_DpT3_ESt16integer_sequenceImJXspT4_EEEDpRKT5_ENKUlPvPSB_PhNS_9rv_policyEPNS0_12cleanup_listEE_clESP_SQ_SR_SS_SU_.exit": ; preds = %5, %11, %17
  %.0.i = phi ptr [ %25, %17 ], [ inttoptr (i64 1 to ptr), %11 ], [ inttoptr (i64 1 to ptr), %5 ]
  call void @llvm.lifetime.end.p0(i64 16, ptr nonnull %6) #26
  ret ptr %.0.i
}